target datalayout = "e-m:e-p270:32:32-p271:32:32-p272:64:64-i64:64-i128:128-f80:128-n8:16:32:64-S128"
target triple = "x86_64-pc-linux-gnu"

%"class.ClassPrinter::KlassPrintClosure" = type <{ %class.LockedClassesDo.base, [7 x i8], ptr, ptr, ptr, i8, [3 x i8], i32, ptr, i32, i8, [3 x i8] }>
%class.LockedClassesDo.base = type <{ %class.KlassClosure, ptr, i8 }>
%class.KlassClosure = type { ptr }

@_ZTVN12ClassPrinter17KlassPrintClosureE = linkonce_odr hidden unnamed_addr constant { [3 x ptr] } { [3 x ptr] [ptr null, ptr null, ptr @_ZN12ClassPrinter17KlassPrintClosure8do_klassEP5Klass] }, comdat, align 8

; Function Attrs: mustprogress nounwind uwtable
define linkonce_odr hidden noundef zeroext i1 @_ZN12ClassPrinter8has_modeEiNS_4ModeE(i32 noundef %0, i32 noundef %1) #1 comdat align 2 {
  %3 = alloca i32, align 4
  %4 = alloca i32, align 4
  store i32 %0, ptr %3, align 4
  store i32 %1, ptr %4, align 4
  %5 = load i32, ptr %3, align 4
  %6 = load i32, ptr %4, align 4
  %7 = and i32 %5, %6
  %8 = icmp ne i32 %7, 0
  ret i1 %8
}

; Function Attrs: mustprogress nounwind uwtable
define linkonce_odr hidden void @_ZN12ClassPrinter17KlassPrintClosureD2Ev(ptr noundef nonnull align 8 dereferenceable(69) %0) unnamed_addr #1 comdat align 2 {
  %2 = alloca ptr, align 8
  store ptr %0, ptr %2, align 8
  %3 = load ptr, ptr %2, align 8
  call void @_ZN15LockedClassesDoD2Ev(ptr noundef nonnull align 8 dereferenceable(17) %3) #7
  ret void
}

; Function Attrs: mustprogress nounwind uwtable
define linkonce_odr hidden void @_ZN12ClassPrinter17KlassPrintClosureC2EPKcS2_S2_biP12outputStream(ptr noundef nonnull align 8 dereferenceable(69) %0, ptr noundef %1, ptr noundef %2, ptr noundef %3, i1 noundef zeroext %4, i32 noundef %5, ptr noundef %6) unnamed_addr #1 comdat align 2 {
  %8 = alloca ptr, align 8
  %9 = alloca ptr, align 8
  %10 = alloca ptr, align 8
  %11 = alloca ptr, align 8
  %12 = alloca i8, align 1
  %13 = alloca i32, align 4
  %14 = alloca ptr, align 8
  store ptr %0, ptr %8, align 8
  store ptr %1, ptr %9, align 8
  store ptr %2, ptr %10, align 8
  store ptr %3, ptr %11, align 8
  %15 = zext i1 %4 to i8
  store i8 %15, ptr %12, align 1
  store i32 %5, ptr %13, align 4
  store ptr %6, ptr %14, align 8
  %16 = load ptr, ptr %8, align 8
  call void @_ZN15LockedClassesDoC2Ev(ptr noundef nonnull align 8 dereferenceable(17) %16)
  store ptr getelementptr inbounds inrange(-16, 8) ({ [3 x ptr] }, ptr @_ZTVN12ClassPrinter17KlassPrintClosureE, i32 0, i32 0, i32 2), ptr %16, align 8
  %17 = getelementptr inbounds %"class.ClassPrinter::KlassPrintClosure", ptr %16, i32 0, i32 2
  %18 = load ptr, ptr %9, align 8
  store ptr %18, ptr %17, align 8
  %19 = getelementptr inbounds %"class.ClassPrinter::KlassPrintClosure", ptr %16, i32 0, i32 3
  %20 = load ptr, ptr %10, align 8
  store ptr %20, ptr %19, align 8
  %21 = getelementptr inbounds %"class.ClassPrinter::KlassPrintClosure", ptr %16, i32 0, i32 4
  %22 = load ptr, ptr %11, align 8
  store ptr %22, ptr %21, align 8
  %23 = getelementptr inbounds %"class.ClassPrinter::KlassPrintClosure", ptr %16, i32 0, i32 5
  %24 = load i8, ptr %12, align 1
  %25 = trunc i8 %24 to i1
  %26 = zext i1 %25 to i8
  store i8 %26, ptr %23, align 8
  %27 = getelementptr inbounds %"class.ClassPrinter::KlassPrintClosure", ptr %16, i32 0, i32 7
  %28 = load i32, ptr %13, align 4
  store i32 %28, ptr %27, align 4
  %29 = getelementptr inbounds %"class.ClassPrinter::KlassPrintClosure", ptr %16, i32 0, i32 8
  %30 = load ptr, ptr %14, align 8
  store ptr %30, ptr %29, align 8
  %31 = getelementptr inbounds %"class.ClassPrinter::KlassPrintClosure", ptr %16, i32 0, i32 9
  store i32 0, ptr %31, align 8
  %32 = getelementptr inbounds %"class.ClassPrinter::KlassPrintClosure", ptr %16, i32 0, i32 10
  store i8 0, ptr %32, align 4
  %33 = getelementptr inbounds %"class.ClassPrinter::KlassPrintClosure", ptr %16, i32 0, i32 7
  %34 = load i32, ptr %33, align 4
  %35 = call noundef zeroext i1 @_ZN12ClassPrinter8has_modeEiNS_4ModeE(i32 noundef %34, i32 noundef 16)
  br i1 %35, label %36, label %40

36:                                               ; preds = %7
  %37 = getelementptr inbounds %"class.ClassPrinter::KlassPrintClosure", ptr %16, i32 0, i32 7
  %38 = load i32, ptr %37, align 4
  %39 = or i32 %38, 3
  store i32 %39, ptr %37, align 4
  br label %40

40:                                               ; preds = %36, %7
  %41 = getelementptr inbounds %"class.ClassPrinter::KlassPrintClosure", ptr %16, i32 0, i32 7
  %42 = load i32, ptr %41, align 4
  %43 = call noundef zeroext i1 @_ZN12ClassPrinter8has_modeEiNS_4ModeE(i32 noundef %42, i32 noundef 8)
  br i1 %43, label %44, label %48

44:                                               ; preds = %40
  %45 = getelementptr inbounds %"class.ClassPrinter::KlassPrintClosure", ptr %16, i32 0, i32 7
  %46 = load i32, ptr %45, align 4
  %47 = or i32 %46, 3
  store i32 %47, ptr %45, align 4
  br label %48

48:                                               ; preds = %44, %40
  %49 = getelementptr inbounds %"class.ClassPrinter::KlassPrintClosure", ptr %16, i32 0, i32 7
  %50 = load i32, ptr %49, align 4
  %51 = call noundef zeroext i1 @_ZN12ClassPrinter8has_modeEiNS_4ModeE(i32 noundef %50, i32 noundef 4)
  br i1 %51, label %52, label %56

52:                                               ; preds = %48
  %53 = getelementptr inbounds %"class.ClassPrinter::KlassPrintClosure", ptr %16, i32 0, i32 7
  %54 = load i32, ptr %53, align 4
  %55 = or i32 %54, 3
  store i32 %55, ptr %53, align 4
  br label %56

56:                                               ; preds = %52, %48
  %57 = getelementptr inbounds %"class.ClassPrinter::KlassPrintClosure", ptr %16, i32 0, i32 7
  %58 = load i32, ptr %57, align 4
  %59 = call noundef zeroext i1 @_ZN12ClassPrinter8has_modeEiNS_4ModeE(i32 noundef %58, i32 noundef 2)
  br i1 %59, label %60, label %64

60:                                               ; preds = %56
  %61 = getelementptr inbounds %"class.ClassPrinter::KlassPrintClosure", ptr %16, i32 0, i32 7
  %62 = load i32, ptr %61, align 4
  %63 = or i32 %62, 1
  store i32 %63, ptr %61, align 4
  br label %64

64:                                               ; preds = %60, %56
  ret void
}

; Function Attrs: mustprogress nounwind uwtable
define hidden void @_ZN12ClassPrinter13print_classesEPKciP12outputStream(ptr noundef %0, i32 noundef %1, ptr noundef %2) #1 align 2 {
  %4 = alloca ptr, align 8
  %5 = alloca i32, align 4
  %6 = alloca ptr, align 8
  %7 = alloca %"class.ClassPrinter::KlassPrintClosure", align 8
  store ptr %0, ptr %4, align 8
  store i32 %1, ptr %5, align 4
  store ptr %2, ptr %6, align 8
  %8 = load ptr, ptr %4, align 8
  %9 = load i32, ptr %5, align 4
  %10 = load ptr, ptr %6, align 8
  call void @_ZN12ClassPrinter17KlassPrintClosureC2EPKcS2_S2_biP12outputStream(ptr noundef nonnull align 8 dereferenceable(69) %7, ptr noundef %8, ptr noundef null, ptr noundef null, i1 noundef zeroext true, i32 noundef %9, ptr noundef %10)
  call void @_ZN20ClassLoaderDataGraph10classes_doEP12KlassClosure(ptr noundef %7)
  call void @_ZN12ClassPrinter17KlassPrintClosureD2Ev(ptr noundef nonnull align 8 dereferenceable(69) %7) #7
  ret void
}