; Function Attrs: mustprogress nounwind uwtable
define hidden void @_ZN12ClassPrinter13print_classesEPKciP12outputStream(ptr noundef %0, i32 noundef %1, ptr noundef %2) local_unnamed_addr #0 align 2 {
  %4 = alloca %"class.ClassPrinter::KlassPrintClosure", align 8
  call void @_ZN15LockedClassesDoC2Ev(ptr noundef nonnull align 8 dereferenceable(17) %4) #7
  store ptr getelementptr inbounds inrange(-16, 8) (i8, ptr @_ZTVN12ClassPrinter17KlassPrintClosureE, i64 16), ptr %4, align 8
  %5 = getelementptr inbounds i8, ptr %4, i64 24
  store ptr %0, ptr %5, align 8
  %6 = getelementptr inbounds i8, ptr %4, i64 32
  %7 = getelementptr inbounds i8, ptr %4, i64 48
  call void @llvm.memset.p0.i64(ptr noundef nonnull align 8 dereferenceable(16) %6, i8 0, i64 16, i1 false)
  store i8 1, ptr %7, align 8
  %8 = getelementptr inbounds i8, ptr %4, i64 52
  store i32 %1, ptr %8, align 4
  %9 = getelementptr inbounds i8, ptr %4, i64 56
  store ptr %2, ptr %9, align 8
  %10 = getelementptr inbounds i8, ptr %4, i64 64
  store i32 0, ptr %10, align 8
  %11 = getelementptr inbounds i8, ptr %4, i64 68
  store i8 0, ptr %11, align 4
  %12 = and i32 %1, 16
  %.not.not.i = icmp eq i32 %12, 0
  %13 = or i32 %1, 3
  %14 = select i1 %.not.not.i, i32 %1, i32 %13
  %15 = and i32 %14, 8
  %.not6.not.i = icmp eq i32 %15, 0
  %16 = select i1 %.not6.not.i, i32 %14, i32 %13
  %17 = or disjoint i32 %15, %12
  %18 = and i32 %16, 4
  %.not7.not.i = icmp eq i32 %18, 0
  %spec.select.i = select i1 %.not7.not.i, i32 %16, i32 %13
  %19 = or disjoint i32 %17, %18
  %20 = and i32 %spec.select.i, 2
  %21 = or disjoint i32 %19, %20
  %.not.i = icmp eq i32 %21, 0
  br i1 %.not.i, label %_ZN12ClassPrinter17KlassPrintClosureC2EPKcS2_S2_biP12outputStream.exit, label %22

22:                                               ; preds = %3
  %23 = lshr exact i32 %20, 1
  %spec.select9.i = or i32 %23, %spec.select.i
  store i32 %spec.select9.i, ptr %8, align 4
  br label %_ZN12ClassPrinter17KlassPrintClosureC2EPKcS2_S2_biP12outputStream.exit

_ZN12ClassPrinter17KlassPrintClosureC2EPKcS2_S2_biP12outputStream.exit: ; preds = %3, %22
  call void @_ZN20ClassLoaderDataGraph10classes_doEP12KlassClosure(ptr noundef nonnull %4) #7
  call void @_ZN15LockedClassesDoD2Ev(ptr noundef nonnull align 8 dereferenceable(17) %4) #7
  ret void
}